; Function Attrs: mustprogress nofree norecurse nosync nounwind willreturn memory(read, inaccessiblemem: none) uwtable
define internal range(i32 -1, 2) i32 @_sort_update_object_dec(ptr noundef readonly captures(none) %0, ptr noundef readonly captures(none) %1) #3 {
.thread7:
  %2 = load ptr, ptr %0, align 8
  %3 = load ptr, ptr %1, align 8
  %4 = getelementptr inbounds nuw i8, ptr %2, i64 8
  %5 = load i16, ptr %4, align 8
  %6 = icmp eq i16 %5, 5
  %7 = getelementptr inbounds nuw i8, ptr %3, i64 8
  %8 = load i16, ptr %7, align 8
  %.not = icmp ne i16 %8, 5
  %spec.select = zext i1 %.not to i32
  %9 = icmp eq i16 %8, 5
  %spec.select8 = sext i1 %9 to i32
  %.0 = select i1 %6, i32 %spec.select, i32 %spec.select8
  ret i32 %.0
}